target datalayout = "e-m:e-p270:32:32-p271:32:32-p272:64:64-i64:64-i128:128-f80:128-n8:16:32:64-S128"
target triple = "x86_64-pc-linux-gnu"

@.str.2 = private unnamed_addr constant [13 x i8] c"arrayfuncs.c\00", align 1
@.str.29 = private unnamed_addr constant [53 x i8] c"type %u not supported by deconstruct_array_builtin()\00", align 1
@__func__.deconstruct_array_builtin = private unnamed_addr constant [26 x i8] c"deconstruct_array_builtin\00", align 1

; Function Attrs: nounwind uwtable
define dso_local void @deconstruct_array_builtin(ptr noundef %0, i32 noundef %1, ptr noundef %2, ptr noundef %3, ptr noundef %4) #0 {
  %6 = alloca ptr, align 8
  %7 = alloca i32, align 4
  %8 = alloca ptr, align 8
  %9 = alloca ptr, align 8
  %10 = alloca ptr, align 8
  %11 = alloca i32, align 4
  %12 = alloca i8, align 1
  %13 = alloca i8, align 1
  store ptr %0, ptr %6, align 8
  store i32 %1, ptr %7, align 4
  store ptr %2, ptr %8, align 8
  store ptr %3, ptr %9, align 8
  store ptr %4, ptr %10, align 8
  call void @llvm.lifetime.start.p0(i64 4, ptr %11) #11
  call void @llvm.lifetime.start.p0(i64 1, ptr %12) #11
  call void @llvm.lifetime.start.p0(i64 1, ptr %13) #11
  %14 = load i32, ptr %7, align 4
  switch i32 %14, label %22 [
    i32 18, label %15
    i32 2275, label %16
    i32 701, label %17
    i32 21, label %18
    i32 26, label %19
    i32 25, label %20
    i32 27, label %21
  ]

15:                                               ; preds = %5
  store i32 1, ptr %11, align 4
  store i8 1, ptr %12, align 1
  store i8 99, ptr %13, align 1
  br label %34

16:                                               ; preds = %5
  store i32 -2, ptr %11, align 4
  store i8 0, ptr %12, align 1
  store i8 99, ptr %13, align 1
  br label %34

17:                                               ; preds = %5
  store i32 8, ptr %11, align 4
  store i8 1, ptr %12, align 1
  store i8 100, ptr %13, align 1
  br label %34

18:                                               ; preds = %5
  store i32 2, ptr %11, align 4
  store i8 1, ptr %12, align 1
  store i8 115, ptr %13, align 1
  br label %34

19:                                               ; preds = %5
  store i32 4, ptr %11, align 4
  store i8 1, ptr %12, align 1
  store i8 105, ptr %13, align 1
  br label %34

20:                                               ; preds = %5
  store i32 -1, ptr %11, align 4
  store i8 0, ptr %12, align 1
  store i8 105, ptr %13, align 1
  br label %34

21:                                               ; preds = %5
  store i32 6, ptr %11, align 4
  store i8 0, ptr %12, align 1
  store i8 115, ptr %13, align 1
  br label %34

22:                                               ; preds = %5
  br label %23

23:                                               ; preds = %22
  br i1 true, label %24, label %26

24:                                               ; preds = %23
  %25 = call zeroext i1 @errstart_cold(i32 noundef 21, ptr noundef null) #13
  br i1 %25, label %28, label %31

26:                                               ; preds = %23
  %27 = call zeroext i1 @errstart(i32 noundef 21, ptr noundef null)
  br i1 %27, label %28, label %31

28:                                               ; preds = %26, %24
  %29 = load i32, ptr %7, align 4
  %30 = call i32 (ptr, ...) @errmsg_internal(ptr noundef @.str.29, i32 noundef %29)
  call void @errfinish(ptr noundef @.str.2, i32 noundef 3750, ptr noundef @__func__.deconstruct_array_builtin)
  br label %31

31:                                               ; preds = %28, %26, %24
  unreachable

32:                                               ; No predecessors!
  br label %33

33:                                               ; preds = %32
  store i32 0, ptr %11, align 4
  store i8 0, ptr %12, align 1
  store i8 0, ptr %13, align 1
  br label %34

34:                                               ; preds = %33, %21, %20, %19, %18, %17, %16, %15
  %35 = load ptr, ptr %6, align 8
  %36 = load i32, ptr %7, align 4
  %37 = load i32, ptr %11, align 4
  %38 = load i8, ptr %12, align 1, !range !4, !noundef !5
  %39 = trunc i8 %38 to i1
  %40 = load i8, ptr %13, align 1
  %41 = load ptr, ptr %8, align 8
  %42 = load ptr, ptr %9, align 8
  %43 = load ptr, ptr %10, align 8
  call void @deconstruct_array(ptr noundef %35, i32 noundef %36, i32 noundef %37, i1 noundef zeroext %39, i8 noundef signext %40, ptr noundef %41, ptr noundef %42, ptr noundef %43)
  call void @llvm.lifetime.end.p0(i64 1, ptr %13) #11
  call void @llvm.lifetime.end.p0(i64 1, ptr %12) #11
  call void @llvm.lifetime.end.p0(i64 4, ptr %11) #11
  ret void
}