; Function Attrs: nounwind uwtable
define dso_local void @deconstruct_array_builtin(ptr noundef %0, i32 noundef %1, ptr noundef writeonly captures(none) %2, ptr noundef captures(address_is_null) %3, ptr noundef writeonly captures(none) %4) local_unnamed_addr #0 {
  switch i32 %1, label %12 [
    i32 18, label %15
    i32 2275, label %6
    i32 701, label %7
    i32 21, label %8
    i32 26, label %9
    i32 25, label %10
    i32 27, label %11
  ]

6:                                                ; preds = %5
  br label %15

7:                                                ; preds = %5
  br label %15

8:                                                ; preds = %5
  br label %15

9:                                                ; preds = %5
  br label %15

10:                                               ; preds = %5
  br label %15

11:                                               ; preds = %5
  br label %15

12:                                               ; preds = %5
  %13 = tail call zeroext i1 @errstart_cold(i32 noundef 21, ptr noundef null) #20
  tail call void @llvm.assume(i1 %13)
  %14 = tail call i32 (ptr, ...) @errmsg_internal(ptr noundef nonnull @.str.29, i32 noundef %1) #18
  tail call void @errfinish(ptr noundef nonnull @.str.2, i32 noundef 3750, ptr noundef nonnull @__func__.deconstruct_array_builtin) #18
  unreachable

15:                                               ; preds = %5, %11, %10, %9, %8, %7, %6
  %.010 = phi i32 [ 6, %11 ], [ -1, %10 ], [ 4, %9 ], [ 2, %8 ], [ 8, %7 ], [ -2, %6 ], [ 1, %5 ]
  %.09 = phi i1 [ false, %11 ], [ false, %10 ], [ true, %9 ], [ true, %8 ], [ true, %7 ], [ false, %6 ], [ true, %5 ]
  %.0 = phi i8 [ 115, %11 ], [ 105, %10 ], [ 105, %9 ], [ 115, %8 ], [ 100, %7 ], [ 99, %6 ], [ 99, %5 ]
  tail call void @deconstruct_array(ptr noundef %0, i32 poison, i32 noundef %.010, i1 noundef zeroext %.09, i8 noundef signext %.0, ptr noundef %2, ptr noundef %3, ptr noundef %4)
  ret void
}